; Function Attrs: nounwind uwtable
define hidden void @png_read_png(ptr noalias noundef %0, ptr noalias noundef %1, i32 noundef %2, ptr nocapture noundef readnone %3) local_unnamed_addr #0 {
  %5 = icmp eq ptr %0, null
  %6 = icmp eq ptr %1, null
  %or.cond = or i1 %5, %6
  br i1 %or.cond, label %101, label %7

7:                                                ; preds = %4
  tail call void @png_read_info(ptr noundef nonnull %0, ptr noundef nonnull %1)
  %8 = getelementptr inbounds i8, ptr %1, i64 4
  %9 = load i32, ptr %8, align 4
  %10 = icmp ugt i32 %9, 536870911
  br i1 %10, label %11, label %12

11:                                               ; preds = %7
  tail call void @png_error(ptr noundef nonnull %0, ptr noundef nonnull @.str.13) #12
  unreachable

12:                                               ; preds = %7
  %13 = and i32 %2, 32768
  %.not = icmp eq i32 %13, 0
  br i1 %.not, label %15, label %14

14:                                               ; preds = %12
  tail call void @png_set_scale_16(ptr noundef nonnull %0) #11
  br label %15

15:                                               ; preds = %14, %12
  %16 = and i32 %2, 1
  %.not65 = icmp eq i32 %16, 0
  br i1 %.not65, label %18, label %17

17:                                               ; preds = %15
  tail call void @png_set_strip_16(ptr noundef nonnull %0) #11
  br label %18

18:                                               ; preds = %17, %15
  %19 = and i32 %2, 2
  %.not66 = icmp eq i32 %19, 0
  br i1 %.not66, label %21, label %20

20:                                               ; preds = %18
  tail call void @png_set_strip_alpha(ptr noundef nonnull %0) #11
  br label %21

21:                                               ; preds = %20, %18
  %22 = and i32 %2, 4
  %.not67 = icmp eq i32 %22, 0
  br i1 %.not67, label %24, label %23

23:                                               ; preds = %21
  tail call void @png_set_packing(ptr noundef nonnull %0) #11
  br label %24

24:                                               ; preds = %23, %21
  %25 = and i32 %2, 8
  %.not68 = icmp eq i32 %25, 0
  br i1 %.not68, label %27, label %26

26:                                               ; preds = %24
  tail call void @png_set_packswap(ptr noundef nonnull %0) #11
  br label %27

27:                                               ; preds = %26, %24
  %28 = and i32 %2, 16
  %.not69 = icmp eq i32 %28, 0
  br i1 %.not69, label %30, label %29

29:                                               ; preds = %27
  tail call void @png_set_expand(ptr noundef nonnull %0) #11
  br label %30

30:                                               ; preds = %29, %27
  %31 = and i32 %2, 32
  %.not70 = icmp eq i32 %31, 0
  br i1 %.not70, label %33, label %32

32:                                               ; preds = %30
  tail call void @png_set_invert_mono(ptr noundef nonnull %0) #11
  br label %33

33:                                               ; preds = %32, %30
  %34 = and i32 %2, 64
  %.not71 = icmp eq i32 %34, 0
  br i1 %.not71, label %41, label %35

35:                                               ; preds = %33
  %36 = getelementptr inbounds i8, ptr %1, i64 8
  %37 = load i32, ptr %36, align 8
  %38 = and i32 %37, 2
  %.not72 = icmp eq i32 %38, 0
  br i1 %.not72, label %41, label %39

39:                                               ; preds = %35
  %40 = getelementptr inbounds i8, ptr %1, i64 176
  tail call void @png_set_shift(ptr noundef nonnull %0, ptr noundef nonnull %40) #11
  br label %41

41:                                               ; preds = %35, %39, %33
  %42 = and i32 %2, 128
  %.not73 = icmp eq i32 %42, 0
  br i1 %.not73, label %44, label %43

43:                                               ; preds = %41
  tail call void @png_set_bgr(ptr noundef nonnull %0) #11
  br label %44

44:                                               ; preds = %43, %41
  %45 = and i32 %2, 256
  %.not74 = icmp eq i32 %45, 0
  br i1 %.not74, label %47, label %46

46:                                               ; preds = %44
  tail call void @png_set_swap_alpha(ptr noundef nonnull %0) #11
  br label %47

47:                                               ; preds = %46, %44
  %48 = and i32 %2, 512
  %.not75 = icmp eq i32 %48, 0
  br i1 %.not75, label %50, label %49

49:                                               ; preds = %47
  tail call void @png_set_swap(ptr noundef nonnull %0) #11
  br label %50

50:                                               ; preds = %49, %47
  %51 = and i32 %2, 1024
  %.not76 = icmp eq i32 %51, 0
  br i1 %.not76, label %53, label %52

52:                                               ; preds = %50
  tail call void @png_set_invert_alpha(ptr noundef nonnull %0) #11
  br label %53

53:                                               ; preds = %52, %50
  %54 = and i32 %2, 8192
  %.not77 = icmp eq i32 %54, 0
  br i1 %.not77, label %56, label %55

55:                                               ; preds = %53
  tail call void @png_set_gray_to_rgb(ptr noundef nonnull %0) #11
  br label %56

56:                                               ; preds = %55, %53
  %57 = and i32 %2, 16384
  %.not78 = icmp eq i32 %57, 0
  br i1 %.not78, label %59, label %58

58:                                               ; preds = %56
  tail call void @png_set_expand_16(ptr noundef nonnull %0) #11
  br label %59

59:                                               ; preds = %56, %58
  %60 = tail call i32 @png_set_interlace_handling(ptr noundef nonnull %0) #11
  %61 = getelementptr inbounds i8, ptr %0, i64 296
  %62 = load i32, ptr %61, align 8, !alias.scope !21, !noalias !24
  %63 = and i32 %62, 64
  %64 = icmp eq i32 %63, 0
  br i1 %64, label %65, label %66

65:                                               ; preds = %59
  tail call void @png_read_start_row(ptr noundef nonnull %0) #11, !noalias !24
  tail call void @png_read_transform_info(ptr noundef nonnull %0, ptr noundef nonnull %1) #11
  br label %png_read_update_info.exit

66:                                               ; preds = %59
  tail call void @png_app_error(ptr noundef nonnull %0, ptr noundef nonnull @.str.3) #11, !noalias !24
  br label %png_read_update_info.exit

png_read_update_info.exit:                        ; preds = %65, %66
  tail call void @png_free_data(ptr noundef nonnull %0, ptr noundef nonnull %1, i32 noundef 64, i32 noundef 0) #11
  %67 = getelementptr inbounds i8, ptr %1, i64 336
  %68 = load ptr, ptr %67, align 8
  %69 = icmp eq ptr %68, null
  br i1 %69, label %70, label %.loopexit

70:                                               ; preds = %png_read_update_info.exit
  %71 = load i32, ptr %8, align 4
  %72 = zext i32 %71 to i64
  %73 = shl nuw nsw i64 %72, 3
  %74 = tail call noalias ptr @png_malloc(ptr noundef nonnull %0, i64 noundef %73) #11
  store ptr %74, ptr %67, align 8
  %75 = load i32, ptr %8, align 4
  %.not83 = icmp eq i32 %75, 0
  br i1 %.not83, label %._crit_edge.thread, label %.lr.ph

._crit_edge.thread:                               ; preds = %70
  %76 = getelementptr inbounds i8, ptr %1, i64 284
  %77 = load i32, ptr %76, align 4
  %78 = or i32 %77, 64
  store i32 %78, ptr %76, align 4
  br label %.loopexit

.lr.ph:                                           ; preds = %70, %.lr.ph
  %indvars.iv = phi i64 [ %indvars.iv.next, %.lr.ph ], [ 0, %70 ]
  %79 = load ptr, ptr %67, align 8
  %80 = getelementptr inbounds ptr, ptr %79, i64 %indvars.iv
  store ptr null, ptr %80, align 8
  %indvars.iv.next = add nuw nsw i64 %indvars.iv, 1
  %81 = load i32, ptr %8, align 4
  %82 = zext i32 %81 to i64
  %83 = icmp ult i64 %indvars.iv.next, %82
  br i1 %83, label %.lr.ph, label %._crit_edge, !llvm.loop !26

._crit_edge:                                      ; preds = %.lr.ph
  %84 = icmp eq i32 %81, 0
  %85 = getelementptr inbounds i8, ptr %1, i64 284
  %86 = load i32, ptr %85, align 4
  %87 = or i32 %86, 64
  store i32 %87, ptr %85, align 4
  br i1 %84, label %.loopexit, label %.lr.ph82

.lr.ph82:                                         ; preds = %._crit_edge
  %88 = getelementptr inbounds i8, ptr %1, i64 16
  br label %89

89:                                               ; preds = %.lr.ph82, %89
  %indvars.iv86 = phi i64 [ 0, %.lr.ph82 ], [ %indvars.iv.next87, %89 ]
  %90 = load i64, ptr %88, align 8
  %91 = tail call noalias ptr @png_malloc(ptr noundef %0, i64 noundef %90) #11
  %92 = load ptr, ptr %67, align 8
  %93 = getelementptr inbounds ptr, ptr %92, i64 %indvars.iv86
  store ptr %91, ptr %93, align 8
  %indvars.iv.next87 = add nuw nsw i64 %indvars.iv86, 1
  %94 = load i32, ptr %8, align 4
  %95 = zext i32 %94 to i64
  %96 = icmp ult i64 %indvars.iv.next87, %95
  br i1 %96, label %89, label %.loopexit, !llvm.loop !27

.loopexit:                                        ; preds = %89, %._crit_edge.thread, %._crit_edge, %png_read_update_info.exit
  %97 = load ptr, ptr %67, align 8
  tail call void @png_read_image(ptr noundef %0, ptr noundef %97)
  %98 = getelementptr inbounds i8, ptr %1, i64 8
  %99 = load i32, ptr %98, align 8
  %100 = or i32 %99, 32768
  store i32 %100, ptr %98, align 8
  tail call void @png_read_end(ptr noundef %0, ptr noundef nonnull %1)
  br label %101

101:                                              ; preds = %4, %.loopexit
  ret void
}